target datalayout = "e-m:e-p270:32:32-p271:32:32-p272:64:64-i64:64-i128:128-f80:128-n8:16:32:64-S128"
target triple = "x86_64-pc-linux-gnu"

%struct.__ncnn_net_t = type { ptr, ptr }
%struct.__ncnn_net_custom_layer_factory_t = type { ptr, ptr, ptr, ptr }

; Function Attrs: mustprogress uwtable
define hidden void @ncnn_net_register_custom_layer_by_type(ptr noundef %0, ptr noundef %1, ptr noundef %2, ptr noundef %3, ptr noundef %4) #1 {
  %6 = alloca ptr, align 8
  %7 = alloca ptr, align 8
  %8 = alloca ptr, align 8
  %9 = alloca ptr, align 8
  %10 = alloca ptr, align 8
  %11 = alloca ptr, align 8
  store ptr %0, ptr %6, align 8
  store ptr %1, ptr %7, align 8
  store ptr %2, ptr %8, align 8
  store ptr %3, ptr %9, align 8
  store ptr %4, ptr %10, align 8
  %12 = call noalias ptr @malloc(i64 noundef 32) #12
  store ptr %12, ptr %11, align 8
  %13 = load ptr, ptr %8, align 8
  %14 = load ptr, ptr %11, align 8
  %15 = getelementptr inbounds nuw %struct.__ncnn_net_custom_layer_factory_t, ptr %14, i32 0, i32 0
  store ptr %13, ptr %15, align 8
  %16 = load ptr, ptr %9, align 8
  %17 = load ptr, ptr %11, align 8
  %18 = getelementptr inbounds nuw %struct.__ncnn_net_custom_layer_factory_t, ptr %17, i32 0, i32 1
  store ptr %16, ptr %18, align 8
  %19 = load ptr, ptr %10, align 8
  %20 = load ptr, ptr %11, align 8
  %21 = getelementptr inbounds nuw %struct.__ncnn_net_custom_layer_factory_t, ptr %20, i32 0, i32 2
  store ptr %19, ptr %21, align 8
  %22 = load ptr, ptr %6, align 8
  %23 = getelementptr inbounds nuw %struct.__ncnn_net_t, ptr %22, i32 0, i32 1
  %24 = load ptr, ptr %23, align 8
  %25 = load ptr, ptr %11, align 8
  %26 = getelementptr inbounds nuw %struct.__ncnn_net_custom_layer_factory_t, ptr %25, i32 0, i32 3
  store ptr %24, ptr %26, align 8
  %27 = load ptr, ptr %11, align 8
  %28 = load ptr, ptr %6, align 8
  %29 = getelementptr inbounds nuw %struct.__ncnn_net_t, ptr %28, i32 0, i32 1
  store ptr %27, ptr %29, align 8
  %30 = load ptr, ptr %6, align 8
  %31 = getelementptr inbounds nuw %struct.__ncnn_net_t, ptr %30, i32 0, i32 0
  %32 = load ptr, ptr %31, align 8
  %33 = load ptr, ptr %7, align 8
  %34 = load ptr, ptr %11, align 8
  %35 = call noundef i32 @_ZN4ncnn3Net21register_custom_layerEPKcPFPNS_5LayerEPvEPFvS4_S5_ES5_(ptr noundef nonnull align 8 dereferenceable(80) %32, ptr noundef %33, ptr noundef @_ZL27__Layer_c_api_layer_creatorPv, ptr noundef @_ZL29__Layer_c_api_layer_destroyerPN4ncnn5LayerEPv, ptr noundef %34)
  ret void
}